; ModuleID = '7/547.c'
source_filename = "7/547.c"
target datalayout = "e-m:e-p270:32:32-p271:32:32-p272:64:64-i64:64-f80:128-n8:16:32:64-S128"
target triple = "x86_64-pc-linux-gnu"

@.str = private unnamed_addr constant [3 x i8] c"%c\00", align 1
@.str.1 = private unnamed_addr constant [3 x i8] c"%s\00", align 1

; Function Attrs: noinline nounwind uwtable
define dso_local i32 @main() #0 {
  %1 = alloca i32, align 4
  %2 = alloca [256 x i8], align 16
  %3 = alloca [256 x i8], align 16
  %4 = alloca [256 x i8], align 16
  %5 = alloca i32, align 4
  %6 = alloca i32, align 4
  %7 = alloca i32, align 4
  %8 = alloca i32, align 4
  %9 = alloca i32, align 4
  %10 = alloca i32, align 4
  store i32 0, i32* %1, align 4
  %11 = getelementptr inbounds [256 x i8], [256 x i8]* %2, i64 0, i64 0
  %12 = call i32 (i8*, ...) bitcast (i32 (...)* @gets to i32 (i8*, ...)*)(i8* %11)
  %13 = getelementptr inbounds [256 x i8], [256 x i8]* %3, i64 0, i64 0
  %14 = call i32 (i8*, ...) bitcast (i32 (...)* @gets to i32 (i8*, ...)*)(i8* %13)
  %15 = getelementptr inbounds [256 x i8], [256 x i8]* %4, i64 0, i64 0
  %16 = call i32 (i8*, ...) bitcast (i32 (...)* @gets to i32 (i8*, ...)*)(i8* %15)
  store i32 0, i32* %10, align 4
  %17 = getelementptr inbounds [256 x i8], [256 x i8]* %2, i64 0, i64 0
  %18 = call i64 @strlen(i8* %17) #3
  %19 = trunc i64 %18 to i32
  store i32 %19, i32* %6, align 4
  %20 = getelementptr inbounds [256 x i8], [256 x i8]* %3, i64 0, i64 0
  %21 = call i64 @strlen(i8* %20) #3
  %22 = trunc i64 %21 to i32
  store i32 %22, i32* %7, align 4
  store i32 0, i32* %5, align 4
  br label %23

23:                                               ; preds = %103, %0
  %24 = load i32, i32* %5, align 4
  %25 = load i32, i32* %6, align 4
  %26 = icmp slt i32 %24, %25
  br i1 %26, label %27, label %106

27:                                               ; preds = %23
  %28 = load i32, i32* %5, align 4
  %29 = sext i32 %28 to i64
  %30 = getelementptr inbounds [256 x i8], [256 x i8]* %2, i64 0, i64 %29
  %31 = load i8, i8* %30, align 1
  %32 = sext i8 %31 to i32
  %33 = getelementptr inbounds [256 x i8], [256 x i8]* %3, i64 0, i64 0
  %34 = load i8, i8* %33, align 16
  %35 = sext i8 %34 to i32
  %36 = icmp eq i32 %32, %35
  br i1 %36, label %37, label %102

37:                                               ; preds = %27
  store i32 0, i32* %8, align 4
  br label %38

38:                                               ; preds = %58, %37
  %39 = load i32, i32* %8, align 4
  %40 = load i32, i32* %7, align 4
  %41 = icmp slt i32 %39, %40
  br i1 %41, label %42, label %61

42:                                               ; preds = %38
  %43 = load i32, i32* %5, align 4
  %44 = load i32, i32* %8, align 4
  %45 = add nsw i32 %43, %44
  %46 = sext i32 %45 to i64
  %47 = getelementptr inbounds [256 x i8], [256 x i8]* %2, i64 0, i64 %46
  %48 = load i8, i8* %47, align 1
  %49 = sext i8 %48 to i32
  %50 = load i32, i32* %8, align 4
  %51 = sext i32 %50 to i64
  %52 = getelementptr inbounds [256 x i8], [256 x i8]* %3, i64 0, i64 %51
  %53 = load i8, i8* %52, align 1
  %54 = sext i8 %53 to i32
  %55 = icmp ne i32 %49, %54
  br i1 %55, label %56, label %57

56:                                               ; preds = %42
  br label %61

57:                                               ; preds = %42
  br label %58

58:                                               ; preds = %57
  %59 = load i32, i32* %8, align 4
  %60 = add nsw i32 %59, 1
  store i32 %60, i32* %8, align 4
  br label %38

61:                                               ; preds = %56, %38
  %62 = load i32, i32* %8, align 4
  %63 = load i32, i32* %7, align 4
  %64 = icmp eq i32 %62, %63
  br i1 %64, label %65, label %101

65:                                               ; preds = %61
  store i32 1, i32* %10, align 4
  store i32 0, i32* %9, align 4
  br label %66

66:                                               ; preds = %77, %65
  %67 = load i32, i32* %9, align 4
  %68 = load i32, i32* %5, align 4
  %69 = icmp slt i32 %67, %68
  br i1 %69, label %70, label %80

70:                                               ; preds = %66
  %71 = load i32, i32* %9, align 4
  %72 = sext i32 %71 to i64
  %73 = getelementptr inbounds [256 x i8], [256 x i8]* %2, i64 0, i64 %72
  %74 = load i8, i8* %73, align 1
  %75 = sext i8 %74 to i32
  %76 = call i32 (i8*, ...) @printf(i8* getelementptr inbounds ([3 x i8], [3 x i8]* @.str, i64 0, i64 0), i32 %75)
  br label %77

77:                                               ; preds = %70
  %78 = load i32, i32* %9, align 4
  %79 = add nsw i32 %78, 1
  store i32 %79, i32* %9, align 4
  br label %66

80:                                               ; preds = %66
  %81 = getelementptr inbounds [256 x i8], [256 x i8]* %4, i64 0, i64 0
  %82 = call i32 (i8*, ...) @printf(i8* getelementptr inbounds ([3 x i8], [3 x i8]* @.str.1, i64 0, i64 0), i8* %81)
  %83 = load i32, i32* %5, align 4
  %84 = load i32, i32* %7, align 4
  %85 = add nsw i32 %83, %84
  store i32 %85, i32* %9, align 4
  br label %86

86:                                               ; preds = %97, %80
  %87 = load i32, i32* %9, align 4
  %88 = load i32, i32* %6, align 4
  %89 = icmp slt i32 %87, %88
  br i1 %89, label %90, label %100

90:                                               ; preds = %86
  %91 = load i32, i32* %9, align 4
  %92 = sext i32 %91 to i64
  %93 = getelementptr inbounds [256 x i8], [256 x i8]* %2, i64 0, i64 %92
  %94 = load i8, i8* %93, align 1
  %95 = sext i8 %94 to i32
  %96 = call i32 (i8*, ...) @printf(i8* getelementptr inbounds ([3 x i8], [3 x i8]* @.str, i64 0, i64 0), i32 %95)
  br label %97

97:                                               ; preds = %90
  %98 = load i32, i32* %9, align 4
  %99 = add nsw i32 %98, 1
  store i32 %99, i32* %9, align 4
  br label %86

100:                                              ; preds = %86
  br label %106

101:                                              ; preds = %61
  br label %102

102:                                              ; preds = %101, %27
  br label %103

103:                                              ; preds = %102
  %104 = load i32, i32* %5, align 4
  %105 = add nsw i32 %104, 1
  store i32 %105, i32* %5, align 4
  br label %23

106:                                              ; preds = %100, %23
  %107 = load i32, i32* %10, align 4
  %108 = icmp ne i32 %107, 1
  br i1 %108, label %109, label %112

109:                                              ; preds = %106
  %110 = getelementptr inbounds [256 x i8], [256 x i8]* %2, i64 0, i64 0
  %111 = call i32 (i8*, ...) @printf(i8* getelementptr inbounds ([3 x i8], [3 x i8]* @.str.1, i64 0, i64 0), i8* %110)
  br label %112

112:                                              ; preds = %109, %106
  ret i32 0
}

declare dso_local i32 @gets(...) #1

; Function Attrs: nounwind readonly
declare dso_local i64 @strlen(i8*) #2

declare dso_local i32 @printf(i8*, ...) #1


!llvm.module.flags = !{!0}
!llvm.ident = !{!1}

!0 = !{i32 1, !"wchar_size", i32 4}
!1 = !{!"clang version 10.0.0-4ubuntu1 "}
